; Function Attrs: nounwind uwtable
define hidden ptr @X509_time_adj(ptr noundef %0, i64 noundef %1, ptr noundef readonly captures(address_is_null) %2) local_unnamed_addr #0 {
  %4 = alloca i64, align 8
  call void @llvm.lifetime.start.p0(i64 8, ptr nonnull %4) #14
  store i64 0, ptr %4, align 8, !tbaa !103
  %.not.i = icmp eq ptr %2, null
  br i1 %.not.i, label %7, label %5

5:                                                ; preds = %3
  %6 = load i64, ptr %2, align 8, !tbaa !103
  store i64 %6, ptr %4, align 8, !tbaa !103
  br label %9

7:                                                ; preds = %3
  %8 = call i64 @time(ptr noundef nonnull %4) #14
  br label %9

9:                                                ; preds = %7, %5
  %.not18.i = icmp eq ptr %0, null
  br i1 %.not18.i, label %23, label %10

10:                                               ; preds = %9
  %11 = getelementptr inbounds nuw i8, ptr %0, i64 16
  %12 = load i64, ptr %11, align 8, !tbaa !102
  %13 = and i64 %12, 64
  %.not19.i = icmp eq i64 %13, 0
  br i1 %.not19.i, label %14, label %23

14:                                               ; preds = %10
  %15 = getelementptr inbounds nuw i8, ptr %0, i64 4
  %16 = load i32, ptr %15, align 4, !tbaa !99
  switch i32 %16, label %23 [
    i32 23, label %17
    i32 24, label %20
  ]

17:                                               ; preds = %14
  %18 = load i64, ptr %4, align 8, !tbaa !103
  %19 = call ptr @ASN1_UTCTIME_adj(ptr noundef nonnull %0, i64 noundef %18, i32 noundef 0, i64 noundef %1) #14
  br label %X509_time_adj_ex.exit

20:                                               ; preds = %14
  %21 = load i64, ptr %4, align 8, !tbaa !103
  %22 = call ptr @ASN1_GENERALIZEDTIME_adj(ptr noundef nonnull %0, i64 noundef %21, i32 noundef 0, i64 noundef %1) #14
  br label %X509_time_adj_ex.exit

23:                                               ; preds = %14, %10, %9
  %24 = load i64, ptr %4, align 8, !tbaa !103
  %25 = call ptr @ASN1_TIME_adj(ptr noundef %0, i64 noundef %24, i32 noundef 0, i64 noundef %1) #14
  br label %X509_time_adj_ex.exit

X509_time_adj_ex.exit:                            ; preds = %17, %20, %23
  %.0.i = phi ptr [ %25, %23 ], [ %19, %17 ], [ %22, %20 ]
  call void @llvm.lifetime.end.p0(i64 8, ptr nonnull %4) #14
  ret ptr %.0.i
}